; Function Attrs: null_pointer_is_valid sspstrong uwtable
define internal i32 @dissect_ldap_T_ntlmsspNegotiate(i1 zeroext %0, ptr noundef %1, i32 noundef %2, ptr noundef readonly captures(none) %3, ptr noundef %4, i32 %5) #0 {
  %7 = getelementptr inbounds nuw i8, ptr %3, i64 16
  %.b3.i = load i1, ptr @do_protocolop, align 1
  br i1 %.b3.i, label %8, label %ldap_do_protocolop.exit

8:                                                ; preds = %6
  %9 = load ptr, ptr %7, align 8
  %10 = load i32, ptr @ProtocolOp, align 4
  %11 = tail call ptr @val_to_str(i32 noundef %10, ptr noundef nonnull @ldap_ProtocolOp_choice_vals, ptr noundef nonnull @.str.874)
  %12 = getelementptr inbounds nuw i8, ptr %9, i64 8
  %13 = load ptr, ptr %12, align 8
  %14 = load i32, ptr @MessageID, align 4
  tail call void (ptr, i32, ptr, ...) @col_append_fstr(ptr noundef %13, i32 noundef 25, ptr noundef nonnull @.str.875, ptr noundef %11, i32 noundef %14)
  %15 = load ptr, ptr @ldm_tree, align 8
  %.not.i = icmp eq ptr %15, null
  br i1 %.not.i, label %18, label %16

16:                                               ; preds = %8
  %17 = load i32, ptr @MessageID, align 4
  tail call void (ptr, ptr, ...) @proto_item_append_text(ptr noundef nonnull %15, ptr noundef nonnull @.str.876, ptr noundef %11, i32 noundef %17)
  br label %18

18:                                               ; preds = %16, %8
  store i1 false, ptr @do_protocolop, align 1
  br label %ldap_do_protocolop.exit

ldap_do_protocolop.exit:                          ; preds = %6, %18
  %19 = load ptr, ptr @ntlmssp_handle, align 8
  %20 = load ptr, ptr %7, align 8
  %21 = tail call i32 @call_dissector(ptr noundef %19, ptr noundef %1, ptr noundef %20, ptr noundef %4)
  %22 = tail call i32 @tvb_reported_length_remaining(ptr noundef %1, i32 noundef %2)
  %23 = add i32 %22, %2
  ret i32 %23
}